target datalayout = "e-m:e-p270:32:32-p271:32:32-p272:64:64-i64:64-i128:128-f80:128-n8:16:32:64-S128"
target triple = "x86_64-pc-linux-gnu"

%"class.__gnu_cxx::__normal_iterator.85" = type { ptr }
%class.anon.86 = type { i8 }
%"class.gmx::OptionManagerContainer" = type { %"class.std::vector.80" }
%"class.std::vector.80" = type { %"struct.std::_Vector_base.81" }
%"struct.std::_Vector_base.81" = type { %"struct.std::_Vector_base<gmx::IOptionManager *, std::allocator<gmx::IOptionManager *>>::_Vector_impl" }
%"struct.std::_Vector_base<gmx::IOptionManager *, std::allocator<gmx::IOptionManager *>>::_Vector_impl" = type { %"struct.std::_Vector_base<gmx::IOptionManager *, std::allocator<gmx::IOptionManager *>>::_Vector_impl_data" }
%"struct.std::_Vector_base<gmx::IOptionManager *, std::allocator<gmx::IOptionManager *>>::_Vector_impl_data" = type { ptr, ptr, ptr }

@_ZTIN3gmx14IOptionManagerE = external constant ptr
@_ZTIN3gmx22SelectionOptionManagerE = external constant ptr
@.str.28 = private unnamed_addr constant [18 x i8] c"result == nullptr\00", align 1
@.str.29 = private unnamed_addr constant [47 x i8] c"More than one applicable option manager is set\00", align 1
@__PRETTY_FUNCTION__._ZZNK3gmx22OptionManagerContainer3getINS_22SelectionOptionManagerEEEPT_vENKUlvE_clEv = private unnamed_addr constant [79 x i8] c"auto gmx::OptionManagerContainer::get()::(anonymous class)::operator()() const\00", align 1
@.str.30 = private unnamed_addr constant [138 x i8] c"generated/home/dtcxzyw/WorkSpace/Projects/compilers/llvm-opt-benchmark/bench/gromacs/gromacs/src/gromacs/options/optionmanagercontainer.h\00", align 1
@_ZN3gmx26SelectionFileOptionStorageC1ERKNS_19SelectionFileOptionEPNS_22SelectionOptionManagerE = unnamed_addr alias void (ptr, ptr, ptr), ptr @_ZN3gmx26SelectionFileOptionStorageC2ERKNS_19SelectionFileOptionEPNS_22SelectionOptionManagerE

; Function Attrs: mustprogress nounwind uwtable
define linkonce_odr noundef nonnull align 8 dereferenceable(8) ptr @_ZNK9__gnu_cxx17__normal_iteratorIPKPN3gmx14IOptionManagerESt6vectorIS3_SaIS3_EEE4baseEv(ptr noundef nonnull align 8 dereferenceable(8) %0) #2 comdat align 2 {
  %2 = alloca ptr, align 8
  store ptr %0, ptr %2, align 8, !tbaa !364
  %3 = load ptr, ptr %2, align 8
  %4 = getelementptr inbounds nuw %"class.__gnu_cxx::__normal_iterator.85", ptr %3, i32 0, i32 0
  ret ptr %4
}

; Function Attrs: mustprogress nounwind uwtable
define linkonce_odr void @_ZN9__gnu_cxx17__normal_iteratorIPKPN3gmx14IOptionManagerESt6vectorIS3_SaIS3_EEEC2ERKS5_(ptr noundef nonnull align 8 dereferenceable(8) %0, ptr noundef nonnull align 8 dereferenceable(8) %1) unnamed_addr #2 comdat align 2 {
  %3 = alloca ptr, align 8
  %4 = alloca ptr, align 8
  store ptr %0, ptr %3, align 8, !tbaa !364
  store ptr %1, ptr %4, align 8, !tbaa !368
  %5 = load ptr, ptr %3, align 8
  %6 = getelementptr inbounds nuw %"class.__gnu_cxx::__normal_iterator.85", ptr %5, i32 0, i32 0
  %7 = load ptr, ptr %4, align 8, !tbaa !368
  %8 = load ptr, ptr %7, align 8, !tbaa !360
  store ptr %8, ptr %6, align 8, !tbaa !366
  ret void
}

; Function Attrs: mustprogress nounwind uwtable
define linkonce_odr noundef nonnull align 8 dereferenceable(8) ptr @_ZN9__gnu_cxx17__normal_iteratorIPKPN3gmx14IOptionManagerESt6vectorIS3_SaIS3_EEEppEv(ptr noundef nonnull align 8 dereferenceable(8) %0) #2 comdat align 2 {
  %2 = alloca ptr, align 8
  store ptr %0, ptr %2, align 8, !tbaa !364
  %3 = load ptr, ptr %2, align 8
  %4 = getelementptr inbounds nuw %"class.__gnu_cxx::__normal_iterator.85", ptr %3, i32 0, i32 0
  %5 = load ptr, ptr %4, align 8, !tbaa !366
  %6 = getelementptr inbounds nuw ptr, ptr %5, i32 1
  store ptr %6, ptr %4, align 8, !tbaa !366
  ret ptr %3
}

; Function Attrs: inlinehint mustprogress uwtable
define linkonce_odr void @_ZZNK3gmx22OptionManagerContainer3getINS_22SelectionOptionManagerEEEPT_vENKUlvE_clEv(ptr noundef nonnull align 1 dereferenceable(1) %0) #5 comdat align 2 {
  %2 = alloca ptr, align 8
  store ptr %0, ptr %2, align 8, !tbaa !103
  call void @_ZN3gmx8internal13assertHandlerEPKcS2_S2_S2_i(ptr noundef @.str.28, ptr noundef @.str.29, ptr noundef @__PRETTY_FUNCTION__._ZZNK3gmx22OptionManagerContainer3getINS_22SelectionOptionManagerEEEPT_vENKUlvE_clEv, ptr noundef @.str.30, i32 noundef 101) #23
  unreachable
}

; Function Attrs: mustprogress nounwind uwtable
define linkonce_odr noundef nonnull align 8 dereferenceable(8) ptr @_ZNK9__gnu_cxx17__normal_iteratorIPKPN3gmx14IOptionManagerESt6vectorIS3_SaIS3_EEEdeEv(ptr noundef nonnull align 8 dereferenceable(8) %0) #2 comdat align 2 {
  %2 = alloca ptr, align 8
  store ptr %0, ptr %2, align 8, !tbaa !364
  %3 = load ptr, ptr %2, align 8
  %4 = getelementptr inbounds nuw %"class.__gnu_cxx::__normal_iterator.85", ptr %3, i32 0, i32 0
  %5 = load ptr, ptr %4, align 8, !tbaa !366
  ret ptr %5
}

; Function Attrs: inlinehint mustprogress nounwind uwtable
define linkonce_odr noundef zeroext i1 @_ZN9__gnu_cxxneIPKPN3gmx14IOptionManagerESt6vectorIS3_SaIS3_EEEEbRKNS_17__normal_iteratorIT_T0_EESE_(ptr noundef nonnull align 8 dereferenceable(8) %0, ptr noundef nonnull align 8 dereferenceable(8) %1) #0 comdat {
  %3 = alloca ptr, align 8
  %4 = alloca ptr, align 8
  store ptr %0, ptr %3, align 8, !tbaa !364
  store ptr %1, ptr %4, align 8, !tbaa !364
  %5 = load ptr, ptr %3, align 8, !tbaa !364
  %6 = call noundef nonnull align 8 dereferenceable(8) ptr @_ZNK9__gnu_cxx17__normal_iteratorIPKPN3gmx14IOptionManagerESt6vectorIS3_SaIS3_EEE4baseEv(ptr noundef nonnull align 8 dereferenceable(8) %5) #20
  %7 = load ptr, ptr %6, align 8, !tbaa !360
  %8 = load ptr, ptr %4, align 8, !tbaa !364
  %9 = call noundef nonnull align 8 dereferenceable(8) ptr @_ZNK9__gnu_cxx17__normal_iteratorIPKPN3gmx14IOptionManagerESt6vectorIS3_SaIS3_EEE4baseEv(ptr noundef nonnull align 8 dereferenceable(8) %8) #20
  %10 = load ptr, ptr %9, align 8, !tbaa !360
  %11 = icmp ne ptr %7, %10
  ret i1 %11
}

; Function Attrs: mustprogress nounwind uwtable
define linkonce_odr ptr @_ZNKSt6vectorIPN3gmx14IOptionManagerESaIS2_EE3endEv(ptr noundef nonnull align 8 dereferenceable(24) %0) #2 comdat align 2 {
  %2 = alloca %"class.__gnu_cxx::__normal_iterator.85", align 8
  %3 = alloca ptr, align 8
  store ptr %0, ptr %3, align 8, !tbaa !358
  %4 = load ptr, ptr %3, align 8
  %5 = getelementptr inbounds nuw %"struct.std::_Vector_base.81", ptr %4, i32 0, i32 0
  %6 = getelementptr inbounds nuw %"struct.std::_Vector_base<gmx::IOptionManager *, std::allocator<gmx::IOptionManager *>>::_Vector_impl_data", ptr %5, i32 0, i32 1
  call void @_ZN9__gnu_cxx17__normal_iteratorIPKPN3gmx14IOptionManagerESt6vectorIS3_SaIS3_EEEC2ERKS5_(ptr noundef nonnull align 8 dereferenceable(8) %2, ptr noundef nonnull align 8 dereferenceable(8) %6) #20
  %7 = getelementptr inbounds nuw %"class.__gnu_cxx::__normal_iterator.85", ptr %2, i32 0, i32 0
  %8 = load ptr, ptr %7, align 8
  ret ptr %8
}

; Function Attrs: mustprogress nounwind uwtable
define linkonce_odr ptr @_ZNKSt6vectorIPN3gmx14IOptionManagerESaIS2_EE5beginEv(ptr noundef nonnull align 8 dereferenceable(24) %0) #2 comdat align 2 {
  %2 = alloca %"class.__gnu_cxx::__normal_iterator.85", align 8
  %3 = alloca ptr, align 8
  store ptr %0, ptr %3, align 8, !tbaa !358
  %4 = load ptr, ptr %3, align 8
  %5 = getelementptr inbounds nuw %"struct.std::_Vector_base.81", ptr %4, i32 0, i32 0
  %6 = getelementptr inbounds nuw %"struct.std::_Vector_base<gmx::IOptionManager *, std::allocator<gmx::IOptionManager *>>::_Vector_impl_data", ptr %5, i32 0, i32 0
  call void @_ZN9__gnu_cxx17__normal_iteratorIPKPN3gmx14IOptionManagerESt6vectorIS3_SaIS3_EEEC2ERKS5_(ptr noundef nonnull align 8 dereferenceable(8) %2, ptr noundef nonnull align 8 dereferenceable(8) %6) #20
  %7 = getelementptr inbounds nuw %"class.__gnu_cxx::__normal_iterator.85", ptr %2, i32 0, i32 0
  %8 = load ptr, ptr %7, align 8
  ret ptr %8
}

; Function Attrs: mustprogress uwtable
define linkonce_odr noundef ptr @_ZNK3gmx22OptionManagerContainer3getINS_22SelectionOptionManagerEEEPT_v(ptr noundef nonnull align 8 dereferenceable(24) %0) #1 comdat align 2 {
  %2 = alloca ptr, align 8
  %3 = alloca ptr, align 8
  %4 = alloca ptr, align 8
  %5 = alloca %"class.__gnu_cxx::__normal_iterator.85", align 8
  %6 = alloca %"class.__gnu_cxx::__normal_iterator.85", align 8
  %7 = alloca ptr, align 8
  %8 = alloca ptr, align 8
  %9 = alloca %class.anon.86, align 1
  store ptr %0, ptr %2, align 8, !tbaa !9
  %10 = load ptr, ptr %2, align 8
  call void @llvm.lifetime.start.p0(i64 8, ptr %3) #20
  store ptr null, ptr %3, align 8, !tbaa !74
  call void @llvm.lifetime.start.p0(i64 8, ptr %4) #20
  %11 = getelementptr inbounds nuw %"class.gmx::OptionManagerContainer", ptr %10, i32 0, i32 0
  store ptr %11, ptr %4, align 8, !tbaa !358
  call void @llvm.lifetime.start.p0(i64 8, ptr %5) #20
  %12 = load ptr, ptr %4, align 8, !tbaa !358
  %13 = call ptr @_ZNKSt6vectorIPN3gmx14IOptionManagerESaIS2_EE5beginEv(ptr noundef nonnull align 8 dereferenceable(24) %12) #20
  %14 = getelementptr inbounds nuw %"class.__gnu_cxx::__normal_iterator.85", ptr %5, i32 0, i32 0
  store ptr %13, ptr %14, align 8
  call void @llvm.lifetime.start.p0(i64 8, ptr %6) #20
  %15 = load ptr, ptr %4, align 8, !tbaa !358
  %16 = call ptr @_ZNKSt6vectorIPN3gmx14IOptionManagerESaIS2_EE3endEv(ptr noundef nonnull align 8 dereferenceable(24) %15) #20
  %17 = getelementptr inbounds nuw %"class.__gnu_cxx::__normal_iterator.85", ptr %6, i32 0, i32 0
  store ptr %16, ptr %17, align 8
  br label %18

18:                                               ; preds = %41, %1
  %19 = call noundef zeroext i1 @_ZN9__gnu_cxxneIPKPN3gmx14IOptionManagerESt6vectorIS3_SaIS3_EEEEbRKNS_17__normal_iteratorIT_T0_EESE_(ptr noundef nonnull align 8 dereferenceable(8) %5, ptr noundef nonnull align 8 dereferenceable(8) %6) #20
  br i1 %19, label %21, label %20

20:                                               ; preds = %18
  call void @llvm.lifetime.end.p0(i64 8, ptr %6) #20
  call void @llvm.lifetime.end.p0(i64 8, ptr %5) #20
  call void @llvm.lifetime.end.p0(i64 8, ptr %4) #20
  br label %43

21:                                               ; preds = %18
  call void @llvm.lifetime.start.p0(i64 8, ptr %7) #20
  %22 = call noundef nonnull align 8 dereferenceable(8) ptr @_ZNK9__gnu_cxx17__normal_iteratorIPKPN3gmx14IOptionManagerESt6vectorIS3_SaIS3_EEEdeEv(ptr noundef nonnull align 8 dereferenceable(8) %5) #20
  store ptr %22, ptr %7, align 8, !tbaa !360
  call void @llvm.lifetime.start.p0(i64 8, ptr %8) #20
  %23 = load ptr, ptr %7, align 8, !tbaa !360
  %24 = load ptr, ptr %23, align 8, !tbaa !362
  %25 = icmp eq ptr %24, null
  br i1 %25, label %28, label %26

26:                                               ; preds = %21
  %27 = call ptr @__dynamic_cast(ptr %24, ptr @_ZTIN3gmx14IOptionManagerE, ptr @_ZTIN3gmx22SelectionOptionManagerE, i64 0) #20
  br label %29

28:                                               ; preds = %21
  br label %29

29:                                               ; preds = %28, %26
  %30 = phi ptr [ %27, %26 ], [ null, %28 ]
  store ptr %30, ptr %8, align 8, !tbaa !74
  %31 = load ptr, ptr %8, align 8, !tbaa !74
  %32 = icmp ne ptr %31, null
  br i1 %32, label %33, label %40

33:                                               ; preds = %29
  %34 = load ptr, ptr %3, align 8, !tbaa !74
  %35 = icmp eq ptr %34, null
  call void @llvm.lifetime.start.p0(i64 1, ptr %9) #20
  br i1 %35, label %36, label %37

36:                                               ; preds = %33
  br label %38

37:                                               ; preds = %33
  call void @_ZZNK3gmx22OptionManagerContainer3getINS_22SelectionOptionManagerEEEPT_vENKUlvE_clEv(ptr noundef nonnull align 1 dereferenceable(1) %9)
  br label %38

38:                                               ; preds = %37, %36
  call void @llvm.lifetime.end.p0(i64 1, ptr %9) #20
  %39 = load ptr, ptr %8, align 8, !tbaa !74
  store ptr %39, ptr %3, align 8, !tbaa !74
  br label %40

40:                                               ; preds = %38, %29
  call void @llvm.lifetime.end.p0(i64 8, ptr %8) #20
  call void @llvm.lifetime.end.p0(i64 8, ptr %7) #20
  br label %41

41:                                               ; preds = %40
  %42 = call noundef nonnull align 8 dereferenceable(8) ptr @_ZN9__gnu_cxx17__normal_iteratorIPKPN3gmx14IOptionManagerESt6vectorIS3_SaIS3_EEEppEv(ptr noundef nonnull align 8 dereferenceable(8) %5) #20
  br label %18

43:                                               ; preds = %20
  %44 = load ptr, ptr %3, align 8, !tbaa !74
  call void @llvm.lifetime.end.p0(i64 8, ptr %3) #20
  ret ptr %44
}

; Function Attrs: mustprogress uwtable
define noundef ptr @_ZNK3gmx19SelectionFileOption13createStorageERKNS_22OptionManagerContainerE(ptr noundef nonnull align 8 dereferenceable(48) %0, ptr noundef nonnull align 8 dereferenceable(24) %1) unnamed_addr #1 align 2 personality ptr @__gxx_personality_v0 {
  %3 = alloca ptr, align 8
  %4 = alloca ptr, align 8
  %5 = alloca ptr, align 8
  %6 = alloca i32, align 4
  store ptr %0, ptr %3, align 8, !tbaa !72
  store ptr %1, ptr %4, align 8, !tbaa !9
  %7 = load ptr, ptr %3, align 8
  %8 = call noalias noundef nonnull ptr @_Znwm(i64 noundef 136) #22
  %9 = load ptr, ptr %4, align 8, !tbaa !9
  %10 = invoke noundef ptr @_ZNK3gmx22OptionManagerContainer3getINS_22SelectionOptionManagerEEEPT_v(ptr noundef nonnull align 8 dereferenceable(24) %9)
          to label %11 unwind label %13

11:                                               ; preds = %2
  invoke void @_ZN3gmx26SelectionFileOptionStorageC1ERKNS_19SelectionFileOptionEPNS_22SelectionOptionManagerE(ptr noundef nonnull align 8 dereferenceable(129) %8, ptr noundef nonnull align 8 dereferenceable(48) %7, ptr noundef %10)
          to label %12 unwind label %13

12:                                               ; preds = %11
  ret ptr %8

13:                                               ; preds = %11, %2
  %14 = landingpad { ptr, i32 }
          cleanup
  %15 = extractvalue { ptr, i32 } %14, 0
  store ptr %15, ptr %5, align 8
  %16 = extractvalue { ptr, i32 } %14, 1
  store i32 %16, ptr %6, align 4
  call void @_ZdlPvm(ptr noundef %8, i64 noundef 136) #21
  br label %17

17:                                               ; preds = %13
  %18 = load ptr, ptr %5, align 8
  %19 = load i32, ptr %6, align 4
  %20 = insertvalue { ptr, i32 } poison, ptr %18, 0
  %21 = insertvalue { ptr, i32 } %20, i32 %19, 1
  resume { ptr, i32 } %21
}