; Function Attrs: mustprogress uwtable
define noundef nonnull ptr @_ZNK3gmx19SelectionFileOption13createStorageERKNS_22OptionManagerContainerE(ptr noundef nonnull align 8 dereferenceable(48) %0, ptr noundef nonnull readonly align 8 captures(none) dereferenceable(24) %1) unnamed_addr #1 align 2 personality ptr @__gxx_personality_v0 {
  %3 = tail call noalias noundef nonnull dereferenceable(136) ptr @_Znwm(i64 noundef 136) #27
  %4 = load ptr, ptr %1, align 8, !tbaa !4
  %5 = getelementptr inbounds nuw i8, ptr %1, i64 8
  %6 = load ptr, ptr %5, align 8, !tbaa !4
  %.not1517.i = icmp eq ptr %4, %6
  br i1 %.not1517.i, label %_ZNK3gmx22OptionManagerContainer3getINS_22SelectionOptionManagerEEEPT_v.exit, label %.lr.ph.i

.lr.ph.i:                                         ; preds = %2, %.thread.i
  %.019.i = phi ptr [ %.1.i, %.thread.i ], [ null, %2 ]
  %.sroa.011.018.i = phi ptr [ %14, %.thread.i ], [ %4, %2 ]
  %7 = load ptr, ptr %.sroa.011.018.i, align 8, !tbaa !10
  %8 = icmp eq ptr %7, null
  br i1 %8, label %.thread.i, label %9

9:                                                ; preds = %.lr.ph.i
  %10 = tail call ptr @__dynamic_cast(ptr nonnull %7, ptr nonnull @_ZTIN3gmx14IOptionManagerE, ptr nonnull @_ZTIN3gmx22SelectionOptionManagerE, i64 0) #28
  %.not.i = icmp eq ptr %10, null
  br i1 %.not.i, label %.thread.i, label %11

11:                                               ; preds = %9
  %12 = icmp eq ptr %.019.i, null
  br i1 %12, label %.thread.i, label %13

13:                                               ; preds = %11
  invoke void @_ZN3gmx8internal13assertHandlerEPKcS2_S2_S2_i(ptr noundef nonnull @.str.28, ptr noundef nonnull @.str.29, ptr noundef nonnull @__PRETTY_FUNCTION__._ZZNK3gmx22OptionManagerContainer3getINS_22SelectionOptionManagerEEEPT_vENKUlvE_clEv, ptr noundef nonnull @.str.30, i32 noundef 101) #29
          to label %.noexc unwind label %16

.noexc:                                           ; preds = %13
  unreachable

.thread.i:                                        ; preds = %11, %9, %.lr.ph.i
  %.1.i = phi ptr [ %.019.i, %9 ], [ %10, %11 ], [ %.019.i, %.lr.ph.i ]
  %14 = getelementptr inbounds nuw i8, ptr %.sroa.011.018.i, i64 8
  %.not15.i = icmp eq ptr %14, %6
  br i1 %.not15.i, label %_ZNK3gmx22OptionManagerContainer3getINS_22SelectionOptionManagerEEEPT_v.exit, label %.lr.ph.i

_ZNK3gmx22OptionManagerContainer3getINS_22SelectionOptionManagerEEEPT_v.exit: ; preds = %.thread.i, %2
  %.0.lcssa.i = phi ptr [ null, %2 ], [ %.1.i, %.thread.i ]
  invoke void @_ZN3gmx26SelectionFileOptionStorageC1ERKNS_19SelectionFileOptionEPNS_22SelectionOptionManagerE(ptr noundef nonnull align 8 dereferenceable(129) %3, ptr noundef nonnull align 8 dereferenceable(48) %0, ptr noundef %.0.lcssa.i)
          to label %15 unwind label %16

15:                                               ; preds = %_ZNK3gmx22OptionManagerContainer3getINS_22SelectionOptionManagerEEEPT_v.exit
  ret ptr %3

16:                                               ; preds = %13, %_ZNK3gmx22OptionManagerContainer3getINS_22SelectionOptionManagerEEEPT_v.exit
  %17 = landingpad { ptr, i32 }
          cleanup
  tail call void @_ZdlPvm(ptr noundef nonnull %3, i64 noundef 136) #26
  resume { ptr, i32 } %17
}